target datalayout = "e-m:e-p270:32:32-p271:32:32-p272:64:64-i64:64-i128:128-f80:128-n8:16:32:64-S128"
target triple = "x86_64-pc-linux-gnu"

%struct.jpeg_decompress_struct = type { ptr, ptr, ptr, ptr, i32, i32, ptr, i32, i32, i32, i32, i32, i32, i32, double, i32, i32, i32, i32, i32, i32, i32, i32, i32, i32, i32, i32, i32, i32, i32, i32, i32, i32, ptr, i32, i32, i32, i32, i32, ptr, [4 x ptr], [4 x ptr], [4 x ptr], i32, ptr, i32, i32, [16 x i8], [16 x i8], [16 x i8], i32, i32, i8, i8, i8, i16, i16, i32, i8, i32, ptr, i32, i32, i32, i32, ptr, i32, [4 x ptr], i32, i32, i32, [10 x i32], i32, i32, i32, i32, i32, ptr, ptr, ptr, ptr, ptr, ptr, ptr, ptr, ptr, ptr, ptr }
%struct.jpeg_component_info = type { i32, i32, i32, i32, i32, i32, i32, i32, i32, i32, i32, i32, i32, i32, i32, i32, i32, i32, i32, ptr, ptr }

; Function Attrs: nounwind uwtable
define hidden void @jRD2x2(ptr noundef %0, ptr noundef %1, ptr noundef %2, ptr noundef %3, i32 noundef %4) #0 {
  %6 = alloca ptr, align 8
  %7 = alloca ptr, align 8
  %8 = alloca ptr, align 8
  %9 = alloca ptr, align 8
  %10 = alloca i32, align 4
  %11 = alloca i32, align 4
  %12 = alloca i32, align 4
  %13 = alloca i32, align 4
  %14 = alloca ptr, align 8
  %15 = alloca ptr, align 8
  %16 = alloca ptr, align 8
  %17 = alloca ptr, align 8
  %18 = alloca ptr, align 8
  %19 = alloca i32, align 4
  %20 = alloca [16 x i32], align 16
  %21 = alloca i32, align 4
  %22 = alloca i8, align 1
  store ptr %0, ptr %6, align 8
  store ptr %1, ptr %7, align 8
  store ptr %2, ptr %8, align 8
  store ptr %3, ptr %9, align 8
  store i32 %4, ptr %10, align 4
  %23 = load ptr, ptr %6, align 8
  %24 = getelementptr inbounds %struct.jpeg_decompress_struct, ptr %23, i32 0, i32 65
  %25 = load ptr, ptr %24, align 8
  %26 = getelementptr inbounds i8, ptr %25, i64 128
  store ptr %26, ptr %18, align 8
  %27 = load ptr, ptr %8, align 8
  store ptr %27, ptr %14, align 8
  %28 = load ptr, ptr %7, align 8
  %29 = getelementptr inbounds %struct.jpeg_component_info, ptr %28, i32 0, i32 20
  %30 = load ptr, ptr %29, align 8
  store ptr %30, ptr %15, align 8
  %31 = getelementptr inbounds [16 x i32], ptr %20, i64 0, i64 0
  store ptr %31, ptr %16, align 8
  store i32 8, ptr %19, align 4
  br label %32

32:                                               ; preds = %156, %5
  %33 = load i32, ptr %19, align 4
  %34 = icmp sgt i32 %33, 0
  br i1 %34, label %35, label %165

35:                                               ; preds = %32
  %36 = load i32, ptr %19, align 4
  %37 = icmp eq i32 %36, 6
  br i1 %37, label %44, label %38

38:                                               ; preds = %35
  %39 = load i32, ptr %19, align 4
  %40 = icmp eq i32 %39, 4
  br i1 %40, label %44, label %41

41:                                               ; preds = %38
  %42 = load i32, ptr %19, align 4
  %43 = icmp eq i32 %42, 2
  br i1 %43, label %44, label %45

44:                                               ; preds = %41, %38, %35
  br label %156

45:                                               ; preds = %41
  %46 = load ptr, ptr %14, align 8
  %47 = getelementptr inbounds i16, ptr %46, i64 8
  %48 = load i16, ptr %47, align 2
  %49 = sext i16 %48 to i32
  %50 = icmp eq i32 %49, 0
  br i1 %50, label %51, label %85

51:                                               ; preds = %45
  %52 = load ptr, ptr %14, align 8
  %53 = getelementptr inbounds i16, ptr %52, i64 24
  %54 = load i16, ptr %53, align 2
  %55 = sext i16 %54 to i32
  %56 = icmp eq i32 %55, 0
  br i1 %56, label %57, label %85

57:                                               ; preds = %51
  %58 = load ptr, ptr %14, align 8
  %59 = getelementptr inbounds i16, ptr %58, i64 40
  %60 = load i16, ptr %59, align 2
  %61 = sext i16 %60 to i32
  %62 = icmp eq i32 %61, 0
  br i1 %62, label %63, label %85

63:                                               ; preds = %57
  %64 = load ptr, ptr %14, align 8
  %65 = getelementptr inbounds i16, ptr %64, i64 56
  %66 = load i16, ptr %65, align 2
  %67 = sext i16 %66 to i32
  %68 = icmp eq i32 %67, 0
  br i1 %68, label %69, label %85

69:                                               ; preds = %63
  %70 = load ptr, ptr %14, align 8
  %71 = getelementptr inbounds i16, ptr %70, i64 0
  %72 = load i16, ptr %71, align 2
  %73 = sext i16 %72 to i32
  %74 = load ptr, ptr %15, align 8
  %75 = getelementptr inbounds i32, ptr %74, i64 0
  %76 = load i32, ptr %75, align 4
  %77 = mul nsw i32 %73, %76
  %78 = shl i32 %77, 2
  store i32 %78, ptr %21, align 4
  %79 = load i32, ptr %21, align 4
  %80 = load ptr, ptr %16, align 8
  %81 = getelementptr inbounds i32, ptr %80, i64 0
  store i32 %79, ptr %81, align 4
  %82 = load i32, ptr %21, align 4
  %83 = load ptr, ptr %16, align 8
  %84 = getelementptr inbounds i32, ptr %83, i64 8
  store i32 %82, ptr %84, align 4
  br label %156

85:                                               ; preds = %63, %57, %51, %45
  %86 = load ptr, ptr %14, align 8
  %87 = getelementptr inbounds i16, ptr %86, i64 0
  %88 = load i16, ptr %87, align 2
  %89 = sext i16 %88 to i32
  %90 = load ptr, ptr %15, align 8
  %91 = getelementptr inbounds i32, ptr %90, i64 0
  %92 = load i32, ptr %91, align 4
  %93 = mul nsw i32 %89, %92
  store i32 %93, ptr %13, align 4
  %94 = load i32, ptr %13, align 4
  %95 = shl i32 %94, 15
  store i32 %95, ptr %12, align 4
  %96 = load ptr, ptr %14, align 8
  %97 = getelementptr inbounds i16, ptr %96, i64 56
  %98 = load i16, ptr %97, align 2
  %99 = sext i16 %98 to i32
  %100 = load ptr, ptr %15, align 8
  %101 = getelementptr inbounds i32, ptr %100, i64 56
  %102 = load i32, ptr %101, align 4
  %103 = mul nsw i32 %99, %102
  store i32 %103, ptr %13, align 4
  %104 = load i32, ptr %13, align 4
  %105 = mul nsw i32 %104, -5906
  store i32 %105, ptr %11, align 4
  %106 = load ptr, ptr %14, align 8
  %107 = getelementptr inbounds i16, ptr %106, i64 40
  %108 = load i16, ptr %107, align 2
  %109 = sext i16 %108 to i32
  %110 = load ptr, ptr %15, align 8
  %111 = getelementptr inbounds i32, ptr %110, i64 40
  %112 = load i32, ptr %111, align 4
  %113 = mul nsw i32 %109, %112
  store i32 %113, ptr %13, align 4
  %114 = load i32, ptr %13, align 4
  %115 = mul nsw i32 %114, 6967
  %116 = load i32, ptr %11, align 4
  %117 = add nsw i32 %116, %115
  store i32 %117, ptr %11, align 4
  %118 = load ptr, ptr %14, align 8
  %119 = getelementptr inbounds i16, ptr %118, i64 24
  %120 = load i16, ptr %119, align 2
  %121 = sext i16 %120 to i32
  %122 = load ptr, ptr %15, align 8
  %123 = getelementptr inbounds i32, ptr %122, i64 24
  %124 = load i32, ptr %123, align 4
  %125 = mul nsw i32 %121, %124
  store i32 %125, ptr %13, align 4
  %126 = load i32, ptr %13, align 4
  %127 = mul nsw i32 %126, -10426
  %128 = load i32, ptr %11, align 4
  %129 = add nsw i32 %128, %127
  store i32 %129, ptr %11, align 4
  %130 = load ptr, ptr %14, align 8
  %131 = getelementptr inbounds i16, ptr %130, i64 8
  %132 = load i16, ptr %131, align 2
  %133 = sext i16 %132 to i32
  %134 = load ptr, ptr %15, align 8
  %135 = getelementptr inbounds i32, ptr %134, i64 8
  %136 = load i32, ptr %135, align 4
  %137 = mul nsw i32 %133, %136
  store i32 %137, ptr %13, align 4
  %138 = load i32, ptr %13, align 4
  %139 = mul nsw i32 %138, 29692
  %140 = load i32, ptr %11, align 4
  %141 = add nsw i32 %140, %139
  store i32 %141, ptr %11, align 4
  %142 = load i32, ptr %12, align 4
  %143 = load i32, ptr %11, align 4
  %144 = add nsw i32 %142, %143
  %145 = add nsw i32 %144, 4096
  %146 = ashr i32 %145, 13
  %147 = load ptr, ptr %16, align 8
  %148 = getelementptr inbounds i32, ptr %147, i64 0
  store i32 %146, ptr %148, align 4
  %149 = load i32, ptr %12, align 4
  %150 = load i32, ptr %11, align 4
  %151 = sub nsw i32 %149, %150
  %152 = add nsw i32 %151, 4096
  %153 = ashr i32 %152, 13
  %154 = load ptr, ptr %16, align 8
  %155 = getelementptr inbounds i32, ptr %154, i64 8
  store i32 %153, ptr %155, align 4
  br label %156

156:                                              ; preds = %85, %69, %44
  %157 = load ptr, ptr %14, align 8
  %158 = getelementptr inbounds i16, ptr %157, i32 1
  store ptr %158, ptr %14, align 8
  %159 = load ptr, ptr %15, align 8
  %160 = getelementptr inbounds i32, ptr %159, i32 1
  store ptr %160, ptr %15, align 8
  %161 = load ptr, ptr %16, align 8
  %162 = getelementptr inbounds i32, ptr %161, i32 1
  store ptr %162, ptr %16, align 8
  %163 = load i32, ptr %19, align 4
  %164 = add nsw i32 %163, -1
  store i32 %164, ptr %19, align 4
  br label %32, !llvm.loop !9

165:                                              ; preds = %32
  %166 = getelementptr inbounds [16 x i32], ptr %20, i64 0, i64 0
  store ptr %166, ptr %16, align 8
  store i32 0, ptr %19, align 4
  br label %167

167:                                              ; preds = %267, %165
  %168 = load i32, ptr %19, align 4
  %169 = icmp slt i32 %168, 2
  br i1 %169, label %170, label %270

170:                                              ; preds = %167
  %171 = load ptr, ptr %9, align 8
  %172 = load i32, ptr %19, align 4
  %173 = sext i32 %172 to i64
  %174 = getelementptr inbounds ptr, ptr %171, i64 %173
  %175 = load ptr, ptr %174, align 8
  %176 = load i32, ptr %10, align 4
  %177 = zext i32 %176 to i64
  %178 = getelementptr inbounds i8, ptr %175, i64 %177
  store ptr %178, ptr %17, align 8
  %179 = load ptr, ptr %16, align 8
  %180 = getelementptr inbounds i32, ptr %179, i64 1
  %181 = load i32, ptr %180, align 4
  %182 = icmp eq i32 %181, 0
  br i1 %182, label %183, label %217

183:                                              ; preds = %170
  %184 = load ptr, ptr %16, align 8
  %185 = getelementptr inbounds i32, ptr %184, i64 3
  %186 = load i32, ptr %185, align 4
  %187 = icmp eq i32 %186, 0
  br i1 %187, label %188, label %217

188:                                              ; preds = %183
  %189 = load ptr, ptr %16, align 8
  %190 = getelementptr inbounds i32, ptr %189, i64 5
  %191 = load i32, ptr %190, align 4
  %192 = icmp eq i32 %191, 0
  br i1 %192, label %193, label %217

193:                                              ; preds = %188
  %194 = load ptr, ptr %16, align 8
  %195 = getelementptr inbounds i32, ptr %194, i64 7
  %196 = load i32, ptr %195, align 4
  %197 = icmp eq i32 %196, 0
  br i1 %197, label %198, label %217

198:                                              ; preds = %193
  %199 = load ptr, ptr %18, align 8
  %200 = load ptr, ptr %16, align 8
  %201 = getelementptr inbounds i32, ptr %200, i64 0
  %202 = load i32, ptr %201, align 4
  %203 = add nsw i32 %202, 16
  %204 = ashr i32 %203, 5
  %205 = and i32 %204, 1023
  %206 = sext i32 %205 to i64
  %207 = getelementptr inbounds i8, ptr %199, i64 %206
  %208 = load i8, ptr %207, align 1
  store i8 %208, ptr %22, align 1
  %209 = load i8, ptr %22, align 1
  %210 = load ptr, ptr %17, align 8
  %211 = getelementptr inbounds i8, ptr %210, i64 0
  store i8 %209, ptr %211, align 1
  %212 = load i8, ptr %22, align 1
  %213 = load ptr, ptr %17, align 8
  %214 = getelementptr inbounds i8, ptr %213, i64 1
  store i8 %212, ptr %214, align 1
  %215 = load ptr, ptr %16, align 8
  %216 = getelementptr inbounds i32, ptr %215, i64 8
  store ptr %216, ptr %16, align 8
  br label %267

217:                                              ; preds = %193, %188, %183, %170
  %218 = load ptr, ptr %16, align 8
  %219 = getelementptr inbounds i32, ptr %218, i64 0
  %220 = load i32, ptr %219, align 4
  %221 = shl i32 %220, 15
  store i32 %221, ptr %12, align 4
  %222 = load ptr, ptr %16, align 8
  %223 = getelementptr inbounds i32, ptr %222, i64 7
  %224 = load i32, ptr %223, align 4
  %225 = mul nsw i32 %224, -5906
  %226 = load ptr, ptr %16, align 8
  %227 = getelementptr inbounds i32, ptr %226, i64 5
  %228 = load i32, ptr %227, align 4
  %229 = mul nsw i32 %228, 6967
  %230 = add nsw i32 %225, %229
  %231 = load ptr, ptr %16, align 8
  %232 = getelementptr inbounds i32, ptr %231, i64 3
  %233 = load i32, ptr %232, align 4
  %234 = mul nsw i32 %233, -10426
  %235 = add nsw i32 %230, %234
  %236 = load ptr, ptr %16, align 8
  %237 = getelementptr inbounds i32, ptr %236, i64 1
  %238 = load i32, ptr %237, align 4
  %239 = mul nsw i32 %238, 29692
  %240 = add nsw i32 %235, %239
  store i32 %240, ptr %11, align 4
  %241 = load ptr, ptr %18, align 8
  %242 = load i32, ptr %12, align 4
  %243 = load i32, ptr %11, align 4
  %244 = add nsw i32 %242, %243
  %245 = add nsw i32 %244, 524288
  %246 = ashr i32 %245, 20
  %247 = and i32 %246, 1023
  %248 = sext i32 %247 to i64
  %249 = getelementptr inbounds i8, ptr %241, i64 %248
  %250 = load i8, ptr %249, align 1
  %251 = load ptr, ptr %17, align 8
  %252 = getelementptr inbounds i8, ptr %251, i64 0
  store i8 %250, ptr %252, align 1
  %253 = load ptr, ptr %18, align 8
  %254 = load i32, ptr %12, align 4
  %255 = load i32, ptr %11, align 4
  %256 = sub nsw i32 %254, %255
  %257 = add nsw i32 %256, 524288
  %258 = ashr i32 %257, 20
  %259 = and i32 %258, 1023
  %260 = sext i32 %259 to i64
  %261 = getelementptr inbounds i8, ptr %253, i64 %260
  %262 = load i8, ptr %261, align 1
  %263 = load ptr, ptr %17, align 8
  %264 = getelementptr inbounds i8, ptr %263, i64 1
  store i8 %262, ptr %264, align 1
  %265 = load ptr, ptr %16, align 8
  %266 = getelementptr inbounds i32, ptr %265, i64 8
  store ptr %266, ptr %16, align 8
  br label %267

267:                                              ; preds = %217, %198
  %268 = load i32, ptr %19, align 4
  %269 = add nsw i32 %268, 1
  store i32 %269, ptr %19, align 4
  br label %167, !llvm.loop !10

270:                                              ; preds = %167
  ret void
}