; Function Attrs: nofree norecurse nosync nounwind memory(readwrite, inaccessiblemem: none) uwtable
define hidden void @jRD2x2(ptr nocapture noundef readonly %0, ptr nocapture noundef readonly %1, ptr nocapture noundef readonly %2, ptr nocapture noundef readonly %3, i32 noundef %4) local_unnamed_addr #0 {
  %6 = alloca [16 x i32], align 16
  %7 = getelementptr inbounds i8, ptr %0, i64 424
  %8 = load ptr, ptr %7, align 8
  %9 = getelementptr inbounds i8, ptr %1, i64 88
  %10 = load ptr, ptr %9, align 8
  br label %13

.preheader:                                       ; preds = %76
  %11 = getelementptr inbounds i8, ptr %8, i64 128
  %12 = zext i32 %4 to i64
  br label %82

13:                                               ; preds = %5, %76
  %.085 = phi i32 [ 8, %5 ], [ %80, %76 ]
  %.07784 = phi ptr [ %2, %5 ], [ %77, %76 ]
  %.07883 = phi ptr [ %10, %5 ], [ %78, %76 ]
  %.07982 = phi ptr [ %6, %5 ], [ %79, %76 ]
  %14 = and i32 %.085, 2147483645
  %or.cond = icmp eq i32 %14, 4
  %15 = icmp eq i32 %.085, 2
  %or.cond3 = or i1 %15, %or.cond
  br i1 %or.cond3, label %76, label %16

16:                                               ; preds = %13
  %17 = getelementptr inbounds i8, ptr %.07784, i64 16
  %18 = load i16, ptr %17, align 2
  %19 = icmp eq i16 %18, 0
  %20 = getelementptr inbounds i8, ptr %.07784, i64 48
  %21 = load i16, ptr %20, align 2
  %22 = icmp eq i16 %21, 0
  %or.cond92 = select i1 %19, i1 %22, i1 false
  br i1 %or.cond92, label %23, label %._crit_edge

23:                                               ; preds = %16
  %24 = getelementptr inbounds i8, ptr %.07784, i64 80
  %25 = load i16, ptr %24, align 2
  %26 = icmp eq i16 %25, 0
  br i1 %26, label %27, label %._crit_edge

27:                                               ; preds = %23
  %28 = getelementptr inbounds i8, ptr %.07784, i64 112
  %29 = load i16, ptr %28, align 2
  %30 = icmp eq i16 %29, 0
  br i1 %30, label %31, label %._crit_edge

31:                                               ; preds = %27
  %32 = load i16, ptr %.07784, align 2
  %33 = sext i16 %32 to i32
  %34 = load i32, ptr %.07883, align 4
  %35 = shl nsw i32 %33, 2
  %36 = mul i32 %35, %34
  store i32 %36, ptr %.07982, align 4
  br label %.sink.split

._crit_edge:                                      ; preds = %16, %27, %23
  %37 = phi i16 [ 0, %27 ], [ 0, %23 ], [ %21, %16 ]
  %38 = load i16, ptr %.07784, align 2
  %39 = sext i16 %38 to i32
  %40 = load i32, ptr %.07883, align 4
  %41 = shl nsw i32 %39, 15
  %42 = mul i32 %41, %40
  %43 = getelementptr inbounds i8, ptr %.07784, i64 112
  %44 = load i16, ptr %43, align 2
  %45 = sext i16 %44 to i32
  %46 = getelementptr inbounds i8, ptr %.07883, i64 224
  %47 = load i32, ptr %46, align 4
  %48 = mul nsw i32 %45, -5906
  %49 = mul i32 %48, %47
  %50 = getelementptr inbounds i8, ptr %.07784, i64 80
  %51 = load i16, ptr %50, align 2
  %52 = sext i16 %51 to i32
  %53 = getelementptr inbounds i8, ptr %.07883, i64 160
  %54 = load i32, ptr %53, align 4
  %55 = mul nsw i32 %52, 6967
  %56 = mul i32 %55, %54
  %57 = add nsw i32 %56, %49
  %58 = sext i16 %37 to i32
  %59 = getelementptr inbounds i8, ptr %.07883, i64 96
  %60 = load i32, ptr %59, align 4
  %61 = mul nsw i32 %58, -10426
  %62 = mul i32 %61, %60
  %63 = add nsw i32 %57, %62
  %64 = sext i16 %18 to i32
  %65 = getelementptr inbounds i8, ptr %.07883, i64 32
  %66 = load i32, ptr %65, align 4
  %67 = mul nsw i32 %64, 29692
  %68 = mul i32 %67, %66
  %69 = add nsw i32 %63, %68
  %70 = or disjoint i32 %42, 4096
  %71 = add i32 %70, %69
  %72 = ashr i32 %71, 13
  store i32 %72, ptr %.07982, align 4
  %73 = sub i32 %70, %69
  %74 = ashr i32 %73, 13
  br label %.sink.split

.sink.split:                                      ; preds = %31, %._crit_edge
  %.sink = phi i32 [ %74, %._crit_edge ], [ %36, %31 ]
  %75 = getelementptr inbounds i8, ptr %.07982, i64 32
  store i32 %.sink, ptr %75, align 4
  br label %76

76:                                               ; preds = %.sink.split, %13
  %77 = getelementptr inbounds i8, ptr %.07784, i64 2
  %78 = getelementptr inbounds i8, ptr %.07883, i64 4
  %79 = getelementptr inbounds i8, ptr %.07982, i64 4
  %80 = add nsw i32 %.085, -1
  %81 = icmp ugt i32 %.085, 1
  br i1 %81, label %13, label %.preheader, !llvm.loop !9

82:                                               ; preds = %.preheader, %136
  %83 = phi i1 [ true, %.preheader ], [ false, %136 ]
  %indvars.iv = phi i64 [ 0, %.preheader ], [ 1, %136 ]
  %.18086 = phi ptr [ %6, %.preheader ], [ %.2, %136 ]
  %84 = getelementptr inbounds ptr, ptr %3, i64 %indvars.iv
  %85 = load ptr, ptr %84, align 8
  %86 = getelementptr inbounds i8, ptr %85, i64 %12
  %87 = getelementptr inbounds i8, ptr %.18086, i64 4
  %88 = load i32, ptr %87, align 4
  %89 = icmp eq i32 %88, 0
  %90 = getelementptr inbounds i8, ptr %.18086, i64 12
  %91 = load i32, ptr %90, align 4
  %92 = icmp eq i32 %91, 0
  %or.cond94 = select i1 %89, i1 %92, i1 false
  br i1 %or.cond94, label %93, label %._crit_edge89

93:                                               ; preds = %82
  %94 = getelementptr inbounds i8, ptr %.18086, i64 20
  %95 = load i32, ptr %94, align 4
  %96 = icmp eq i32 %95, 0
  br i1 %96, label %97, label %._crit_edge89

97:                                               ; preds = %93
  %98 = getelementptr inbounds i8, ptr %.18086, i64 28
  %99 = load i32, ptr %98, align 4
  %100 = icmp eq i32 %99, 0
  br i1 %100, label %101, label %._crit_edge89

101:                                              ; preds = %97
  %102 = load i32, ptr %.18086, align 4
  %103 = add nsw i32 %102, 16
  %104 = lshr i32 %103, 5
  %105 = and i32 %104, 1023
  %106 = zext nneg i32 %105 to i64
  %107 = getelementptr inbounds i8, ptr %11, i64 %106
  %108 = load i8, ptr %107, align 1
  store i8 %108, ptr %86, align 1
  br label %136

._crit_edge89:                                    ; preds = %82, %97, %93
  %109 = phi i32 [ 0, %97 ], [ 0, %93 ], [ %91, %82 ]
  %110 = load i32, ptr %.18086, align 4
  %111 = shl i32 %110, 15
  %112 = getelementptr inbounds i8, ptr %.18086, i64 28
  %113 = load i32, ptr %112, align 4
  %114 = mul nsw i32 %113, -5906
  %115 = getelementptr inbounds i8, ptr %.18086, i64 20
  %116 = load i32, ptr %115, align 4
  %117 = mul nsw i32 %116, 6967
  %118 = mul nsw i32 %109, -10426
  %119 = mul nsw i32 %88, 29692
  %120 = add i32 %114, %119
  %121 = add i32 %120, %117
  %122 = add i32 %121, %118
  %123 = add i32 %111, 524288
  %124 = add i32 %123, %122
  %125 = lshr i32 %124, 20
  %126 = and i32 %125, 1023
  %127 = zext nneg i32 %126 to i64
  %128 = getelementptr inbounds i8, ptr %11, i64 %127
  %129 = load i8, ptr %128, align 1
  store i8 %129, ptr %86, align 1
  %130 = sub i32 %123, %122
  %131 = lshr i32 %130, 20
  %132 = and i32 %131, 1023
  %133 = zext nneg i32 %132 to i64
  %134 = getelementptr inbounds i8, ptr %11, i64 %133
  %135 = load i8, ptr %134, align 1
  br label %136

136:                                              ; preds = %._crit_edge89, %101
  %.sink95 = phi i8 [ %135, %._crit_edge89 ], [ %108, %101 ]
  %137 = getelementptr inbounds i8, ptr %86, i64 1
  store i8 %.sink95, ptr %137, align 1
  %.2 = getelementptr inbounds i8, ptr %.18086, i64 32
  br i1 %83, label %82, label %138, !llvm.loop !10

138:                                              ; preds = %136
  ret void
}